target datalayout = "e-m:e-p270:32:32-p271:32:32-p272:64:64-i64:64-i128:128-f80:128-n8:16:32:64-S128"
target triple = "x86_64-unknown-linux-gnu"

%"class.cvc5::internal::NodeTemplate" = type { ptr }
%"struct.cvc5::internal::theory::quantifiers::QAttributes" = type { i8, i8, %"class.cvc5::internal::NodeTemplate", i8, %"class.cvc5::internal::NodeTemplate", %"class.cvc5::internal::NodeTemplate", i64, i8, i8, i8, %"class.cvc5::internal::NodeTemplate", %"class.cvc5::internal::NodeTemplate", %"class.cvc5::internal::NodeTemplate" }
%"class.cvc5::internal::Options" = type { %"class.std::unique_ptr", %"class.std::unique_ptr.2", %"class.std::unique_ptr.10", %"class.std::unique_ptr.18", %"class.std::unique_ptr.26", %"class.std::unique_ptr.34", %"class.std::unique_ptr.42", %"class.std::unique_ptr.50", %"class.std::unique_ptr.58", %"class.std::unique_ptr.66", %"class.std::unique_ptr.74", %"class.std::unique_ptr.82", %"class.std::unique_ptr.90", %"class.std::unique_ptr.98", %"class.std::unique_ptr.106", %"class.std::unique_ptr.114", %"class.std::unique_ptr.122", %"class.std::unique_ptr.130", %"class.std::unique_ptr.138", %"class.std::unique_ptr.146", %"class.std::unique_ptr.154", %"class.std::unique_ptr.162", %"class.std::unique_ptr.170", %"class.std::unique_ptr.178", ptr, ptr, ptr, ptr, ptr, ptr, ptr, ptr, ptr, ptr, ptr, ptr, ptr, ptr, ptr, ptr, ptr, ptr, ptr, ptr, ptr, ptr, ptr, ptr, %"class.std::unique_ptr.186" }
%"class.std::unique_ptr" = type { %"struct.std::__uniq_ptr_data" }
%"struct.std::__uniq_ptr_data" = type { %"class.std::__uniq_ptr_impl" }
%"class.std::__uniq_ptr_impl" = type { %"class.std::tuple" }
%"class.std::tuple" = type { %"struct.std::_Tuple_impl" }
%"struct.std::_Tuple_impl" = type { %"struct.std::_Head_base.1" }
%"struct.std::_Head_base.1" = type { ptr }
%"class.std::unique_ptr.2" = type { %"struct.std::__uniq_ptr_data.3" }
%"struct.std::__uniq_ptr_data.3" = type { %"class.std::__uniq_ptr_impl.4" }
%"class.std::__uniq_ptr_impl.4" = type { %"class.std::tuple.5" }
%"class.std::tuple.5" = type { %"struct.std::_Tuple_impl.6" }
%"struct.std::_Tuple_impl.6" = type { %"struct.std::_Head_base.9" }
%"struct.std::_Head_base.9" = type { ptr }
%"class.std::unique_ptr.10" = type { %"struct.std::__uniq_ptr_data.11" }
%"struct.std::__uniq_ptr_data.11" = type { %"class.std::__uniq_ptr_impl.12" }
%"class.std::__uniq_ptr_impl.12" = type { %"class.std::tuple.13" }
%"class.std::tuple.13" = type { %"struct.std::_Tuple_impl.14" }
%"struct.std::_Tuple_impl.14" = type { %"struct.std::_Head_base.17" }
%"struct.std::_Head_base.17" = type { ptr }
%"class.std::unique_ptr.18" = type { %"struct.std::__uniq_ptr_data.19" }
%"struct.std::__uniq_ptr_data.19" = type { %"class.std::__uniq_ptr_impl.20" }
%"class.std::__uniq_ptr_impl.20" = type { %"class.std::tuple.21" }
%"class.std::tuple.21" = type { %"struct.std::_Tuple_impl.22" }
%"struct.std::_Tuple_impl.22" = type { %"struct.std::_Head_base.25" }
%"struct.std::_Head_base.25" = type { ptr }
%"class.std::unique_ptr.26" = type { %"struct.std::__uniq_ptr_data.27" }
%"struct.std::__uniq_ptr_data.27" = type { %"class.std::__uniq_ptr_impl.28" }
%"class.std::__uniq_ptr_impl.28" = type { %"class.std::tuple.29" }
%"class.std::tuple.29" = type { %"struct.std::_Tuple_impl.30" }
%"struct.std::_Tuple_impl.30" = type { %"struct.std::_Head_base.33" }
%"struct.std::_Head_base.33" = type { ptr }
%"class.std::unique_ptr.34" = type { %"struct.std::__uniq_ptr_data.35" }
%"struct.std::__uniq_ptr_data.35" = type { %"class.std::__uniq_ptr_impl.36" }
%"class.std::__uniq_ptr_impl.36" = type { %"class.std::tuple.37" }
%"class.std::tuple.37" = type { %"struct.std::_Tuple_impl.38" }
%"struct.std::_Tuple_impl.38" = type { %"struct.std::_Head_base.41" }
%"struct.std::_Head_base.41" = type { ptr }
%"class.std::unique_ptr.42" = type { %"struct.std::__uniq_ptr_data.43" }
%"struct.std::__uniq_ptr_data.43" = type { %"class.std::__uniq_ptr_impl.44" }
%"class.std::__uniq_ptr_impl.44" = type { %"class.std::tuple.45" }
%"class.std::tuple.45" = type { %"struct.std::_Tuple_impl.46" }
%"struct.std::_Tuple_impl.46" = type { %"struct.std::_Head_base.49" }
%"struct.std::_Head_base.49" = type { ptr }
%"class.std::unique_ptr.50" = type { %"struct.std::__uniq_ptr_data.51" }
%"struct.std::__uniq_ptr_data.51" = type { %"class.std::__uniq_ptr_impl.52" }
%"class.std::__uniq_ptr_impl.52" = type { %"class.std::tuple.53" }
%"class.std::tuple.53" = type { %"struct.std::_Tuple_impl.54" }
%"struct.std::_Tuple_impl.54" = type { %"struct.std::_Head_base.57" }
%"struct.std::_Head_base.57" = type { ptr }
%"class.std::unique_ptr.58" = type { %"struct.std::__uniq_ptr_data.59" }
%"struct.std::__uniq_ptr_data.59" = type { %"class.std::__uniq_ptr_impl.60" }
%"class.std::__uniq_ptr_impl.60" = type { %"class.std::tuple.61" }
%"class.std::tuple.61" = type { %"struct.std::_Tuple_impl.62" }
%"struct.std::_Tuple_impl.62" = type { %"struct.std::_Head_base.65" }
%"struct.std::_Head_base.65" = type { ptr }
%"class.std::unique_ptr.66" = type { %"struct.std::__uniq_ptr_data.67" }
%"struct.std::__uniq_ptr_data.67" = type { %"class.std::__uniq_ptr_impl.68" }
%"class.std::__uniq_ptr_impl.68" = type { %"class.std::tuple.69" }
%"class.std::tuple.69" = type { %"struct.std::_Tuple_impl.70" }
%"struct.std::_Tuple_impl.70" = type { %"struct.std::_Head_base.73" }
%"struct.std::_Head_base.73" = type { ptr }
%"class.std::unique_ptr.74" = type { %"struct.std::__uniq_ptr_data.75" }
%"struct.std::__uniq_ptr_data.75" = type { %"class.std::__uniq_ptr_impl.76" }
%"class.std::__uniq_ptr_impl.76" = type { %"class.std::tuple.77" }
%"class.std::tuple.77" = type { %"struct.std::_Tuple_impl.78" }
%"struct.std::_Tuple_impl.78" = type { %"struct.std::_Head_base.81" }
%"struct.std::_Head_base.81" = type { ptr }
%"class.std::unique_ptr.82" = type { %"struct.std::__uniq_ptr_data.83" }
%"struct.std::__uniq_ptr_data.83" = type { %"class.std::__uniq_ptr_impl.84" }
%"class.std::__uniq_ptr_impl.84" = type { %"class.std::tuple.85" }
%"class.std::tuple.85" = type { %"struct.std::_Tuple_impl.86" }
%"struct.std::_Tuple_impl.86" = type { %"struct.std::_Head_base.89" }
%"struct.std::_Head_base.89" = type { ptr }
%"class.std::unique_ptr.90" = type { %"struct.std::__uniq_ptr_data.91" }
%"struct.std::__uniq_ptr_data.91" = type { %"class.std::__uniq_ptr_impl.92" }
%"class.std::__uniq_ptr_impl.92" = type { %"class.std::tuple.93" }
%"class.std::tuple.93" = type { %"struct.std::_Tuple_impl.94" }
%"struct.std::_Tuple_impl.94" = type { %"struct.std::_Head_base.97" }
%"struct.std::_Head_base.97" = type { ptr }
%"class.std::unique_ptr.98" = type { %"struct.std::__uniq_ptr_data.99" }
%"struct.std::__uniq_ptr_data.99" = type { %"class.std::__uniq_ptr_impl.100" }
%"class.std::__uniq_ptr_impl.100" = type { %"class.std::tuple.101" }
%"class.std::tuple.101" = type { %"struct.std::_Tuple_impl.102" }
%"struct.std::_Tuple_impl.102" = type { %"struct.std::_Head_base.105" }
%"struct.std::_Head_base.105" = type { ptr }
%"class.std::unique_ptr.106" = type { %"struct.std::__uniq_ptr_data.107" }
%"struct.std::__uniq_ptr_data.107" = type { %"class.std::__uniq_ptr_impl.108" }
%"class.std::__uniq_ptr_impl.108" = type { %"class.std::tuple.109" }
%"class.std::tuple.109" = type { %"struct.std::_Tuple_impl.110" }
%"struct.std::_Tuple_impl.110" = type { %"struct.std::_Head_base.113" }
%"struct.std::_Head_base.113" = type { ptr }
%"class.std::unique_ptr.114" = type { %"struct.std::__uniq_ptr_data.115" }
%"struct.std::__uniq_ptr_data.115" = type { %"class.std::__uniq_ptr_impl.116" }
%"class.std::__uniq_ptr_impl.116" = type { %"class.std::tuple.117" }
%"class.std::tuple.117" = type { %"struct.std::_Tuple_impl.118" }
%"struct.std::_Tuple_impl.118" = type { %"struct.std::_Head_base.121" }
%"struct.std::_Head_base.121" = type { ptr }
%"class.std::unique_ptr.122" = type { %"struct.std::__uniq_ptr_data.123" }
%"struct.std::__uniq_ptr_data.123" = type { %"class.std::__uniq_ptr_impl.124" }
%"class.std::__uniq_ptr_impl.124" = type { %"class.std::tuple.125" }
%"class.std::tuple.125" = type { %"struct.std::_Tuple_impl.126" }
%"struct.std::_Tuple_impl.126" = type { %"struct.std::_Head_base.129" }
%"struct.std::_Head_base.129" = type { ptr }
%"class.std::unique_ptr.130" = type { %"struct.std::__uniq_ptr_data.131" }
%"struct.std::__uniq_ptr_data.131" = type { %"class.std::__uniq_ptr_impl.132" }
%"class.std::__uniq_ptr_impl.132" = type { %"class.std::tuple.133" }
%"class.std::tuple.133" = type { %"struct.std::_Tuple_impl.134" }
%"struct.std::_Tuple_impl.134" = type { %"struct.std::_Head_base.137" }
%"struct.std::_Head_base.137" = type { ptr }
%"class.std::unique_ptr.138" = type { %"struct.std::__uniq_ptr_data.139" }
%"struct.std::__uniq_ptr_data.139" = type { %"class.std::__uniq_ptr_impl.140" }
%"class.std::__uniq_ptr_impl.140" = type { %"class.std::tuple.141" }
%"class.std::tuple.141" = type { %"struct.std::_Tuple_impl.142" }
%"struct.std::_Tuple_impl.142" = type { %"struct.std::_Head_base.145" }
%"struct.std::_Head_base.145" = type { ptr }
%"class.std::unique_ptr.146" = type { %"struct.std::__uniq_ptr_data.147" }
%"struct.std::__uniq_ptr_data.147" = type { %"class.std::__uniq_ptr_impl.148" }
%"class.std::__uniq_ptr_impl.148" = type { %"class.std::tuple.149" }
%"class.std::tuple.149" = type { %"struct.std::_Tuple_impl.150" }
%"struct.std::_Tuple_impl.150" = type { %"struct.std::_Head_base.153" }
%"struct.std::_Head_base.153" = type { ptr }
%"class.std::unique_ptr.154" = type { %"struct.std::__uniq_ptr_data.155" }
%"struct.std::__uniq_ptr_data.155" = type { %"class.std::__uniq_ptr_impl.156" }
%"class.std::__uniq_ptr_impl.156" = type { %"class.std::tuple.157" }
%"class.std::tuple.157" = type { %"struct.std::_Tuple_impl.158" }
%"struct.std::_Tuple_impl.158" = type { %"struct.std::_Head_base.161" }
%"struct.std::_Head_base.161" = type { ptr }
%"class.std::unique_ptr.162" = type { %"struct.std::__uniq_ptr_data.163" }
%"struct.std::__uniq_ptr_data.163" = type { %"class.std::__uniq_ptr_impl.164" }
%"class.std::__uniq_ptr_impl.164" = type { %"class.std::tuple.165" }
%"class.std::tuple.165" = type { %"struct.std::_Tuple_impl.166" }
%"struct.std::_Tuple_impl.166" = type { %"struct.std::_Head_base.169" }
%"struct.std::_Head_base.169" = type { ptr }
%"class.std::unique_ptr.170" = type { %"struct.std::__uniq_ptr_data.171" }
%"struct.std::__uniq_ptr_data.171" = type { %"class.std::__uniq_ptr_impl.172" }
%"class.std::__uniq_ptr_impl.172" = type { %"class.std::tuple.173" }
%"class.std::tuple.173" = type { %"struct.std::_Tuple_impl.174" }
%"struct.std::_Tuple_impl.174" = type { %"struct.std::_Head_base.177" }
%"struct.std::_Head_base.177" = type { ptr }
%"class.std::unique_ptr.178" = type { %"struct.std::__uniq_ptr_data.179" }
%"struct.std::__uniq_ptr_data.179" = type { %"class.std::__uniq_ptr_impl.180" }
%"class.std::__uniq_ptr_impl.180" = type { %"class.std::tuple.181" }
%"class.std::tuple.181" = type { %"struct.std::_Tuple_impl.182" }
%"struct.std::_Tuple_impl.182" = type { %"struct.std::_Head_base.185" }
%"struct.std::_Head_base.185" = type { ptr }
%"class.std::unique_ptr.186" = type { %"struct.std::__uniq_ptr_data.187" }
%"struct.std::__uniq_ptr_data.187" = type { %"class.std::__uniq_ptr_impl.188" }
%"class.std::__uniq_ptr_impl.188" = type { %"class.std::tuple.189" }
%"class.std::tuple.189" = type { %"struct.std::_Tuple_impl.190" }
%"struct.std::_Tuple_impl.190" = type { %"struct.std::_Head_base.193" }
%"struct.std::_Head_base.193" = type { ptr }
%"struct.cvc5::internal::options::HolderQUANTIFIERS" = type <{ i8, i8, i8, i8, i8, i8, i8, i8, i32, i8, i8, i8, i8, i8, i8, i8, i8, i32, i8, i8, i8, i8, i8, i8, i8, i8, i8, [3 x i8], i32, i8, i8, i8, i8, i8, i8, i8, i8, i8, i8, i8, i8, i8, i8, i8, i8, i8, i8, i8, i8, i8, i8, i8, i8, i8, i8, i8, i8, i8, [3 x i8], i32, i8, i8, i8, i8, i64, i8, [7 x i8], i64, i8, [7 x i8], i64, i8, i8, i8, i8, i8, i8, i8, i8, i8, i8, i8, i8, i8, i8, i8, i8, i64, i8, i8, i8, i8, i8, i8, i8, i8, i8, i8, i8, i8, i8, i8, i8, i8, i8, i8, i8, i8, i8, [3 x i8], i32, i8, [3 x i8], i64, i8, i8, i8, i8, i8, i8, i8, i8, i8, i8, i8, i8, i8, [3 x i8], i32, i8, i8, i8, i8, i64, i8, [7 x i8], i64, i8, i8, i8, i8, i32, i8, [7 x i8], i64, i8, i8, i8, i8, i8, [3 x i8], i32, i8, [3 x i8], i32, i8, i8, i8, i8, i32, i8, i8, i8, i8, i8, i8, i8, i8, i32, i8, i8, i8, i8, i8, i8, i8, i8, i8, i8, i8, i8, i8, i8, i8, i8, i32, i8, i8, i8, i8, i32, i8, i8, i8, i8, i32, i8, i8, i8, i8, i8, i8, i8, i8, i32, i8, i8, i8, i8, i8, [3 x i8], i32, i8, i8, i8, i8, i8, i8, i8, i8, i8, i8, i8, i8, i8, i8, i8, i8, i8, i8, i8, i8, i8, [3 x i8], i32, i8, [7 x i8], i64, i8, [7 x i8], double, i8, [3 x i8], i32, i8, [7 x i8], i64, i8, [3 x i8], i32, i8, i8, i8, i8, i32, i8, i8, i8, i8, i8, i8, i8, i8, i8, [3 x i8], i32, i8, [3 x i8], i32, i8, [3 x i8], i32, i8, [3 x i8], i32, i8, i8, i8, i8, i8, [3 x i8], i32, i8, i8, i8, i8, i8, [7 x i8], i64, i8, i8, i8, i8, i32, i8, [3 x i8], i32, i8, i8, i8, [5 x i8], i64, i8, i8, i8, [5 x i8], i64, i8, i8, i8, [5 x i8], i64, i8, i8, i8, i8, i8, i8, i8, i8, i8, i8, i8, i8, i8, [3 x i8], i64, i8, i8, i8, i8, i8, i8, i8, i8, i64, i8, [3 x i8], i32, i8, i8, i8, i8, i32, i8, [7 x i8], i64, i8, [7 x i8], double, i8, i8, i8, i8, i8, [3 x i8], i32, i8, i8, i8, i8, i64, i8, [7 x i8], i64, i8, i8, i8, i8, i32, i8, [3 x i8], i32, i8, [3 x i8], i32, i8, [3 x i8], i32, i8, [3 x i8], i32, i8, i8, i8, i8, i8, [3 x i8] }>

; Function Attrs: mustprogress uwtable
define hidden noundef zeroext i1 @_ZN4cvc58internal6theory11quantifiers19QuantifiersRewriter10isStandardERNS2_11QAttributesERKNS0_7OptionsE(ptr noundef nonnull align 8 dereferenceable(80) %qa, ptr noundef nonnull align 8 dereferenceable(392) %opts) #4 align 2 {
entry:
  %qa.addr = alloca ptr, align 8
  %opts.addr = alloca ptr, align 8
  %is_strict_trigger = alloca i8, align 1
  store ptr %qa, ptr %qa.addr, align 8
  store ptr %opts, ptr %opts.addr, align 8
  %0 = load ptr, ptr %qa.addr, align 8
  %d_hasPattern = getelementptr inbounds %"struct.cvc5::internal::theory::quantifiers::QAttributes", ptr %0, i32 0, i32 0
  %1 = load i8, ptr %d_hasPattern, align 8
  %tobool = trunc i8 %1 to i1
  br i1 %tobool, label %land.rhs, label %land.end

land.rhs:                                         ; preds = %entry
  %2 = load ptr, ptr %opts.addr, align 8
  %quantifiers = getelementptr inbounds %"class.cvc5::internal::Options", ptr %2, i32 0, i32 41
  %3 = load ptr, ptr %quantifiers, align 8
  %userPatternsQuant = getelementptr inbounds %"struct.cvc5::internal::options::HolderQUANTIFIERS", ptr %3, i32 0, i32 378
  %4 = load i32, ptr %userPatternsQuant, align 4
  %cmp = icmp eq i32 %4, 2
  br label %land.end

land.end:                                         ; preds = %land.rhs, %entry
  %5 = phi i1 [ false, %entry ], [ %cmp, %land.rhs ]
  %frombool = zext i1 %5 to i8
  store i8 %frombool, ptr %is_strict_trigger, align 1
  %6 = load ptr, ptr %qa.addr, align 8
  %call = call noundef zeroext i1 @_ZNK4cvc58internal6theory11quantifiers11QAttributes10isStandardEv(ptr noundef nonnull align 8 dereferenceable(80) %6)
  br i1 %call, label %land.rhs1, label %land.end3

land.rhs1:                                        ; preds = %land.end
  %7 = load i8, ptr %is_strict_trigger, align 1
  %tobool2 = trunc i8 %7 to i1
  %lnot = xor i1 %tobool2, true
  br label %land.end3

land.end3:                                        ; preds = %land.rhs1, %land.end
  %8 = phi i1 [ false, %land.end ], [ %lnot, %land.rhs1 ]
  ret i1 %8
}