; Function Attrs: mustprogress uwtable
define hidden noundef zeroext i1 @_ZN4cvc58internal6theory11quantifiers19QuantifiersRewriter10isStandardERNS2_11QAttributesERKNS0_7OptionsE(ptr noundef nonnull align 8 dereferenceable(80) %qa, ptr nocapture noundef nonnull readonly align 8 dereferenceable(392) %opts) local_unnamed_addr #3 align 2 {
entry:
  %0 = load i8, ptr %qa, align 8
  %1 = and i8 %0, 1
  %tobool.not = icmp eq i8 %1, 0
  br i1 %tobool.not, label %land.end, label %land.rhs

land.rhs:                                         ; preds = %entry
  %quantifiers = getelementptr inbounds i8, ptr %opts, i64 328
  %2 = load ptr, ptr %quantifiers, align 8
  %userPatternsQuant = getelementptr inbounds i8, ptr %2, i64 748
  %3 = load i32, ptr %userPatternsQuant, align 4
  %cmp = icmp ne i32 %3, 2
  br label %land.end

land.end:                                         ; preds = %land.rhs, %entry
  %lnot = phi i1 [ true, %entry ], [ %cmp, %land.rhs ]
  %call = tail call noundef zeroext i1 @_ZNK4cvc58internal6theory11quantifiers11QAttributes10isStandardEv(ptr noundef nonnull align 8 dereferenceable(80) %qa)
  %4 = select i1 %call, i1 %lnot, i1 false
  ret i1 %4
}